#include <math.h>
#include <stdio.h>
#include <stdlib.h>
#include <string.h>

void display(double n)
{
	double *index,ave,ele[1000],sum=0,answer;
	int i=0;
	index=ele;
	for(i;i<n;i++)
	{
		scanf("%lf",&ele[i]);
		sum+=ele[i];
	}
	ave=sum/n;
	sum=0;
	for(i=0;i<n;i++)
	{
		sum+=pow(ele[i]-ave,2);
	}
	sum=(double)sum/n;
	answer=pow(sum,0.5);
	printf("%.5f",answer);
}


double main()
{
	double k,n,i;
	scanf("%lf",&k);
	for(i=0;i<k;i++){
		scanf("%lf",&n);
		if(i!=0) printf("\n");
		display(n);
	}
	return 0;
}

